******************************************************************************
            TI ARM Clang Linker PC v4.0.4                      
******************************************************************************
>> Linked Wed Jul 15 16:03:16 2026

OUTPUT FILE NAME:   <first.out>
ENTRY POINT SYMBOL: "_c_int00_noargs"  address: 00002d05


MEMORY CONFIGURATION

         name            origin    length      used     unused   attr    fill
----------------------  --------  ---------  --------  --------  ----  --------
  FLASH                 00000000   00020000  00003550  0001cab0  R  X
  SRAM                  20200000   00008000  00000406  00007bfa  RW X
  BCR_CONFIG            41c00000   000000ff  00000000  000000ff  R   
  BSL_CONFIG            41c00100   00000080  00000000  00000080  R   


SEGMENT ALLOCATION MAP

run origin  load origin   length   init length attrs members
----------  ----------- ---------- ----------- ----- -------
00000000    00000000    00003550   00003550    r-x
  00000000    00000000    000000c0   000000c0    r-- .intvecs
  000000c0    000000c0    000032c0   000032c0    r-x .text
  00003380    00003380    00000188   00000188    r-- .rodata
  00003508    00003508    00000048   00000048    r-- .cinit
20200000    20200000    00000206   00000000    rw-
  20200000    20200000    00000178   00000000    rw- .bss
  20200178    20200178    0000008e   00000000    rw- .data
20207e00    20207e00    00000200   00000000    rw-
  20207e00    20207e00    00000200   00000000    rw- .stack


SECTION ALLOCATION MAP

 output                                  attributes/
section   page    origin      length       input sections
--------  ----  ----------  ----------   ----------------
.intvecs   0    00000000    000000c0     
                  00000000    000000c0     startup_mspm0g350x_ticlang.o (.intvecs)

.text      0    000000c0    000032c0     
                  000000c0    00000644     libc.a : k_rem_pio2.c.obj (.text.__kernel_rem_pio2)
                  00000704    0000021c     mid_foc.o (.text.foc_pwm_output)
                  00000920    000001d4     libc.a : s_cosf.c.obj (.text.cosf)
                  00000af4    000001c8            : s_sinf.c.obj (.text.sinf)
                  00000cbc    00000192     libclang_rt.builtins.a : adddf3.S.obj (.text.adddf3_subdf3)
                  00000e4e    00000002                            : aeabi_div0.c.obj (.text.__aeabi_idiv0)
                  00000e50    00000160     mid_foc.o (.text.foc_set_torque)
                  00000fb0    00000144     libc.a : s_floor.c.obj (.text.floor)
                  000010f4    0000011c            : e_fmodf.c.obj (.text.fmodf)
                  00001210    00000108     ti_msp_dl_config.o (.text.SYSCFG_DL_GPIO_init)
                  00001318    00000108     mid_pid.o (.text.pid_update)
                  00001420    00000104     driverlib.a : dl_timer.o (.text.DL_Timer_initFourCCPWMMode)
                  00001524    000000f8     bsp_AS5600.o (.text.as5600_get_velocity)
                  0000161c    000000e4     libclang_rt.builtins.a : muldf3.S.obj (.text.__muldf3)
                  00001700    000000d8     libc.a : s_scalbn.c.obj (.text.scalbn)
                  000017d8    000000d8     libclang_rt.builtins.a : addsf3.S.obj (.text)
                  000018b0    000000bc     drv_IIC.o (.text.drv_iic_read)
                  0000196c    000000b8     ti_msp_dl_config.o (.text.SYSCFG_DL_BLDC_init)
                  00001a24    000000ac     libc.a : s_cosf.c.obj (.text.__kernel_sindf)
                  00001ad0    000000ac            : s_sinf.c.obj (.text.__kernel_sindf)
                  00001b7c    0000009c            : s_cosf.c.obj (.text.__kernel_cosdf)
                  00001c18    0000009c            : s_sinf.c.obj (.text.__kernel_cosdf)
                  00001cb4    0000008c     ti_msp_dl_config.o (.text.SYSCFG_DL_MG310_PWM_init)
                  00001d40    0000008c     libclang_rt.builtins.a : mulsf3.S.obj (.text.__mulsf3)
                  00001dcc    00000084     ti_msp_dl_config.o (.text.__NVIC_SetPriority)
                  00001e50    00000082     libclang_rt.builtins.a : divsf3.S.obj (.text.__divsf3)
                  00001ed2    00000002     --HOLE-- [fill = 0]
                  00001ed4    0000007c     ti_msp_dl_config.o (.text.SYSCFG_DL_initPower)
                  00001f50    0000007c     libc.a : copy_decompress_lzss.c.obj (.text:decompress:lzss)
                  00001fcc    00000074     libclang_rt.builtins.a : comparedf2.c.obj (.text.__gedf2)
                  00002040    00000074                            : truncdfsf2.S.obj (.text.__truncdfsf2)
                  000020b4    00000070     drv_IIC.o (.text.drv_iic_wait_idle)
                  00002124    00000068     libclang_rt.builtins.a : comparedf2.c.obj (.text.__ledf2)
                  0000218c    00000064     bsp_AS5600.o (.text.as5600_get_speed)
                  000021f0    00000064     mid_foc.o (.text.foc_as5600_init)
                  00002254    00000062     libclang_rt.builtins.a : aeabi_dcmp.S.obj (.text.__aeabi_dcmp)
                  000022b6    00000002     --HOLE-- [fill = 0]
                  000022b8    00000062                            : aeabi_fcmp.S.obj (.text.__aeabi_fcmp)
                  0000231a    00000002     --HOLE-- [fill = 0]
                  0000231c    00000060     mid_pid.o (.text.pid_init_all)
                  0000237c    0000005e     driverlib.a : dl_i2c.o (.text.DL_I2C_fillControllerTXFIFO)
                  000023da    00000002     --HOLE-- [fill = 0]
                  000023dc    0000005c     app_BLCD_test.o (.text.app_BLCD_test)
                  00002438    00000058     ti_msp_dl_config.o (.text.SYSCFG_DL_as5600_init)
                  00002490    00000056     libclang_rt.builtins.a : aeabi_idivmod.S.obj (.text.__aeabi_idivmod)
                  000024e6    00000002     --HOLE-- [fill = 0]
                  000024e8    00000050     ti_msp_dl_config.o (.text.DL_GPIO_initPeripheralInputFunctionFeatures)
                  00002538    00000050     drv_IIC.o (.text.DL_I2C_startControllerTransfer)
                  00002588    00000050     ti_msp_dl_config.o (.text.SYSCFG_DL_debug_init)
                  000025d8    0000004c     ti_msp_dl_config.o (.text.DL_UART_setBaudRateDivisor)
                  00002624    0000004a     libclang_rt.builtins.a : fixdfsi.S.obj (.text.__fixdfsi)
                  0000266e    00000002     --HOLE-- [fill = 0]
                  00002670    00000048     driverlib.a : dl_uart.o (.text.DL_UART_init)
                  000026b8    00000048     mid_foc.o (.text.foc_set_speed)
                  00002700    00000048     drv_tim.o (.text.pwm_setDuty)
                  00002748    00000044     mid_delay.o (.text.get_system_us)
                  0000278c    00000040     libclang_rt.builtins.a : aeabi_uidivmod.S.obj (.text.__aeabi_uidivmod)
                  000027cc    00000040                            : extendsfdf2.S.obj (.text.__extendsfdf2)
                  0000280c    00000040     mid_delay.o (.text.delay_ms)
                  0000284c    00000040     mid_foc.o (.text.foc_electrical_angle)
                  0000288c    00000040     mid_pid.o (.text.pid_init)
                  000028cc    00000040     drv_tim.o (.text.pwm_Init)
                  0000290c    0000003c     driverlib.a : dl_i2c.o (.text.DL_I2C_flushControllerTXFIFO)
                  00002948    0000003c     ti_msp_dl_config.o (.text.DL_Timer_setCounterControl)
                  00002984    0000003c     libclang_rt.builtins.a : floatsisf.S.obj (.text.__floatsisf)
                  000029c0    0000003c                            : comparesf2.S.obj (.text.__gtsf2)
                  000029fc    0000003c     mid_foc.o (.text.foc_normalize)
                  00002a38    0000003c     libc.a : autoinit.c.obj (.text:__TI_auto_init_nobinit_nopinit)
                  00002a74    0000003a     libclang_rt.builtins.a : comparesf2.S.obj (.text.__eqsf2)
                  00002aae    00000002     --HOLE-- [fill = 0]
                  00002ab0    0000003a                            : muldsi3.S.obj (.text.__muldsi3)
                  00002aea    00000002     --HOLE-- [fill = 0]
                  00002aec    00000038     ti_msp_dl_config.o (.text.SYSCFG_DL_init)
                  00002b24    00000038     libclang_rt.builtins.a : fixsfsi.S.obj (.text.__fixsfsi)
                  00002b5c    00000032                            : fixunssfsi.S.obj (.text.__fixunssfsi)
                  00002b8e    00000002     --HOLE-- [fill = 0]
                  00002b90    0000002c                            : floatsidf.S.obj (.text.__floatsidf)
                  00002bbc    0000002c     bsp_AS5600.o (.text.as5600_get_angle_radians)
                  00002be8    0000002a     ti_msp_dl_config.o (.text.SYSCFG_DL_SYSCTL_init)
                  00002c12    00000028     drv_IIC.o (.text.DL_Common_updateReg)
                  00002c3a    00000028     ti_msp_dl_config.o (.text.DL_Common_updateReg)
                  00002c62    00000002     --HOLE-- [fill = 0]
                  00002c64    00000028     ti_msp_dl_config.o (.text.DL_I2C_setControllerRXFIFOThreshold)
                  00002c8c    00000028     ti_msp_dl_config.o (.text.DL_I2C_setControllerTXFIFOThreshold)
                  00002cb4    00000028     ti_msp_dl_config.o (.text.DL_SYSTICK_init)
                  00002cdc    00000028     libclang_rt.builtins.a : floatunsisf.S.obj (.text.__floatunsisf)
                  00002d04    00000028     libc.a : boot_cortex_m.c.obj (.text:_c_int00_noargs)
                  00002d2c    00000026     ti_msp_dl_config.o (.text.DL_I2C_setAnalogGlitchFilterPulseWidth)
                  00002d52    00000026     driverlib.a : dl_i2c.o (.text.DL_I2C_setClockConfig)
                  00002d78    00000026     drv_tim.o (.text.pwm_setAllDuty)
                  00002d9e    00000002     --HOLE-- [fill = 0]
                  00002da0    00000020     ti_msp_dl_config.o (.text.DL_GPIO_initPeripheralInputFunction)
                  00002dc0    00000020     bsp_AS5600.o (.text.as5600_read_raw_angle)
                  00002de0    00000020     mid_delay.o (.text.tick_poll)
                  00002e00    0000001e     ti_msp_dl_config.o (.text.DL_UART_setOversampling)
                  00002e1e    00000002     --HOLE-- [fill = 0]
                  00002e20    0000001c     ti_msp_dl_config.o (.text.DL_GPIO_enableHiZ)
                  00002e3c    0000001c     ti_msp_dl_config.o (.text.DL_GPIO_initPeripheralOutputFunction)
                  00002e58    0000001c     ti_msp_dl_config.o (.text.DL_SYSCTL_setMCLKDivider)
                  00002e74    0000001c     ti_msp_dl_config.o (.text.DL_SYSCTL_setSYSOSCFreq)
                  00002e90    0000001c     ti_msp_dl_config.o (.text.DL_SYSCTL_setULPCLKDivider)
                  00002eac    0000001c     driverlib.a : dl_timer.o (.text.DL_Timer_setCaptCompUpdateMethod)
                  00002ec8    0000001c                 : dl_timer.o (.text.DL_Timer_setClockConfig)
                  00002ee4    0000001c     ti_msp_dl_config.o (.text.DL_UART_enableInterrupt)
                  00002f00    0000001c     bsp_BLCD.o (.text.bsp_bldc_init)
                  00002f1c    0000001c     mid_foc.o (.text.foc_init)
                  00002f38    00000018     ti_msp_dl_config.o (.text.DL_GPIO_enableOutput)
                  00002f50    00000018     ti_msp_dl_config.o (.text.DL_GPIO_enablePower)
                  00002f68    00000018     ti_msp_dl_config.o (.text.DL_GPIO_initDigitalOutput)
                  00002f80    00000018     ti_msp_dl_config.o (.text.DL_GPIO_reset)
                  00002f98    00000018     bsp_led.o (.text.DL_GPIO_togglePins)
                  00002fb0    00000018     ti_msp_dl_config.o (.text.DL_I2C_enableAnalogGlitchFilter)
                  00002fc8    00000018     ti_msp_dl_config.o (.text.DL_I2C_enableController)
                  00002fe0    00000018     ti_msp_dl_config.o (.text.DL_I2C_enableControllerClockStretching)
                  00002ff8    00000018     ti_msp_dl_config.o (.text.DL_I2C_enablePower)
                  00003010    00000018     ti_msp_dl_config.o (.text.DL_I2C_reset)
                  00003028    00000018     ti_msp_dl_config.o (.text.DL_I2C_setTimerPeriod)
                  00003040    00000018     ti_msp_dl_config.o (.text.DL_SYSCTL_setBORThreshold)
                  00003058    00000018     ti_msp_dl_config.o (.text.DL_Timer_enablePower)
                  00003070    00000018     ti_msp_dl_config.o (.text.DL_Timer_reset)
                  00003088    00000018     driverlib.a : dl_timer.o (.text.DL_Timer_setCaptureCompareOutCtl)
                  000030a0    00000018     drv_tim.o (.text.DL_Timer_startCounter)
                  000030b8    00000018     ti_msp_dl_config.o (.text.DL_UART_enablePower)
                  000030d0    00000018     ti_msp_dl_config.o (.text.DL_UART_reset)
                  000030e8    00000018     mid_foc.o (.text.speed_control)
                  00003100    00000016     ti_msp_dl_config.o (.text.DL_UART_enable)
                  00003116    00000016     libc.a : k_rem_pio2.c.obj (.text.OUTLINED_FUNCTION_0)
                  0000312c    00000010     libclang_rt.builtins.a : adddf3.S.obj (.tramp.__aeabi_dadd.1)
                  0000313c    00000016     empty.o (.text.main)
                  00003152    00000016     libc.a : copy_zero_init.c.obj (.text:decompress:ZI:__TI_zero_init_nomemset)
                  00003168    00000014     ti_msp_dl_config.o (.text.DL_GPIO_clearPins)
                  0000317c    00000014     drv_IIC.o (.text.DL_I2C_getControllerStatus)
                  00003190    00000014     drv_IIC.o (.text.DL_I2C_receiveControllerData)
                  000031a4    00000014     drv_IIC.o (.text.DL_I2C_resetControllerTransfer)
                  000031b8    00000014     ti_msp_dl_config.o (.text.DL_I2C_resetControllerTransfer)
                  000031cc    00000014     ti_msp_dl_config.o (.text.DL_SYSCTL_disableSYSPLL)
                  000031e0    00000014     drv_tim.o (.text.DL_Timer_enableClock)
                  000031f4    00000014     ti_msp_dl_config.o (.text.DL_Timer_enableClock)
                  00003208    00000014     ti_msp_dl_config.o (.text.DL_Timer_setCCPDirection)
                  0000321c    00000014     bsp_AS5600.o (.text.as5600_set_direction)
                  00003230    00000014     bsp_led.o (.text.use_led_TOGGLE)
                  00003244    00000012     driverlib.a : dl_uart.o (.text.DL_UART_setClockConfig)
                  00003256    00000012     libc.a : memcpy16.S.obj (.text:TI_memcpy_small)
                  00003268    00000012            : copy_decompress_none.c.obj (.text:decompress:none)
                  0000327a    00000002     --HOLE-- [fill = 0]
                  0000327c    00000010     ti_msp_dl_config.o (.text.DL_SYSCTL_disableHFXT)
                  0000328c    00000010     mid_delay.o (.text.DL_SYSTICK_enable)
                  0000329c    00000010     driverlib.a : dl_timer.o (.text.DL_Timer_setCaptureCompareValue)
                  000032ac    00000010     libc.a : k_rem_pio2.c.obj (.text.OUTLINED_FUNCTION_2)
                  000032bc    00000010     bsp_BLCD.o (.text.bsp_bldc_set_speed)
                  000032cc    00000010     drv_tim.o (.text.pwm_start)
                  000032dc    0000000c     ti_msp_dl_config.o (.text.SYSCFG_DL_SYSTICK_init)
                  000032e8    0000000a     driverlib.a : dl_common.o (.text.DL_Common_delayCycles)
                  000032f2    0000000a     libc.a : k_rem_pio2.c.obj (.text.OUTLINED_FUNCTION_1)
                  000032fc    0000000a            : s_cosf.c.obj (.text.OUTLINED_FUNCTION_3)
                  00003306    0000000a            : s_sinf.c.obj (.text.OUTLINED_FUNCTION_3)
                  00003310    00000008            : aeabi_portable.c.obj (.text.__aeabi_errno_addr)
                  00003318    00000008     libclang_rt.builtins.a : aeabi_memcpy.S.obj (.text.__aeabi_memcpy)
                  00003320    00000006     libc.a : s_cosf.c.obj (.text.OUTLINED_FUNCTION_0)
                  00003326    00000002     --HOLE-- [fill = 0]
                  00003328    00000010     libclang_rt.builtins.a : muldf3.S.obj (.tramp.__aeabi_dmul.1)
                  00003338    00000006     libc.a : s_sinf.c.obj (.text.OUTLINED_FUNCTION_0)
                  0000333e    00000006            : s_cosf.c.obj (.text.OUTLINED_FUNCTION_1)
                  00003344    00000006            : s_sinf.c.obj (.text.OUTLINED_FUNCTION_1)
                  0000334a    00000006            : exit.c.obj (.text:abort)
                  00003350    00000004     startup_mspm0g350x_ticlang.o (.text.Default_Handler)
                  00003354    00000004     libsysbm.a : hostexit.c.obj (.text.HOSTexit)
                  00003358    00000004     libc.a : s_cosf.c.obj (.text.OUTLINED_FUNCTION_2)
                  0000335c    00000010     libclang_rt.builtins.a : extendsfdf2.S.obj (.tramp.__aeabi_f2d.1)
                  0000336c    00000004     libc.a : s_sinf.c.obj (.text.OUTLINED_FUNCTION_2)
                  00003370    00000004     startup_mspm0g350x_ticlang.o (.text.Reset_Handler)
                  00003374    00000004     libc.a : pre_init.c.obj (.text._system_pre_init)
                  00003378    00000008     --HOLE-- [fill = 0]

.cinit     0    00003508    00000048     
                  00003508    00000020     (.cinit..data.load) [load image, compression = lzss]
                  00003528    0000000c     (__TI_handler_table)
                  00003534    00000008     (.cinit..bss.load) [load image, compression = zero_init]
                  0000353c    00000010     (__TI_cinit_table)
                  0000354c    00000004     --HOLE-- [fill = 0]

.rodata    0    00003380    00000188     
                  00003380    00000108     libc.a : k_rem_pio2.c.obj (.rodata.ipio2)
                  00003488    00000040            : k_rem_pio2.c.obj (.rodata.PIo2)
                  000034c8    00000010            : k_rem_pio2.c.obj (.rodata.cst16)
                  000034d8    0000000a     ti_msp_dl_config.o (.rodata.gdebugConfig)
                  000034e2    00000002     ti_msp_dl_config.o (.rodata.gas5600ClockConfig)
                  000034e4    00000008     libc.a : e_fmodf.c.obj (.rodata.cst8)
                  000034ec    00000008     ti_msp_dl_config.o (.rodata.gBLDCConfig)
                  000034f4    00000008     ti_msp_dl_config.o (.rodata.gMG310_PWMConfig)
                  000034fc    00000003     ti_msp_dl_config.o (.rodata.gBLDCClockConfig)
                  000034ff    00000003     ti_msp_dl_config.o (.rodata.gMG310_PWMClockConfig)
                  00003502    00000002     ti_msp_dl_config.o (.rodata.gdebugClockConfig)
                  00003504    00000004     --HOLE-- [fill = 0]

.init_array 
*          0    00000000    00000000     UNINITIALIZED

.binit     0    00000000    00000000     

.bss       0    20200000    00000178     UNINITIALIZED
                  20200000    000000bc     (.common:gBLDCBackup)
                  202000bc    000000bc     (.common:gMG310_PWMBackup)

.data      0    20200178    0000008e     UNINITIALIZED
                  20200178    00000020     mid_pid.o (.data.g_pid_angle)
                  20200198    00000020     mid_pid.o (.data.g_pid_speed)
                  202001b8    00000004     mid_foc.o (.data.DIR)
                  202001bc    00000004     mid_foc.o (.data.PP)
                  202001c0    00000004     mid_foc.o (.data.Ua)
                  202001c4    00000004     mid_foc.o (.data.Ub)
                  202001c8    00000004     mid_foc.o (.data.Uc)
                  202001cc    00000004     libc.a : aeabi_portable.c.obj (.data.__aeabi_errno)
                  202001d0    00000004     bsp_AS5600.o (.data.as5600_get_speed.filtered)
                  202001d4    00000004     bsp_AS5600.o (.data.as5600_get_velocity.last_raw)
                  202001d8    00000004     bsp_AS5600.o (.data.as5600_get_velocity.last_us)
                  202001dc    00000004     mid_foc.o (.data.dc_a)
                  202001e0    00000004     mid_foc.o (.data.dc_b)
                  202001e4    00000004     mid_foc.o (.data.dc_c)
                  202001e8    00000004     bsp_AS5600.o (.data.g_as5600_dir)
                  202001ec    00000004     mid_delay.o (.data.g_system_ms)
                  202001f0    00000004     mid_foc.o (.data.sensor_speed)
                  202001f4    00000004     mid_foc.o (.data.speed_target)
                  202001f8    00000004     mid_foc.o (.data.voltage_limit)
                  202001fc    00000004     mid_foc.o (.data.voltage_power_supply)
                  20200200    00000004     mid_foc.o (.data.zero_electric_angle)
                  20200204    00000001     bsp_AS5600.o (.data.as5600_get_speed.first)
                  20200205    00000001     bsp_AS5600.o (.data.as5600_get_velocity.first)

.stack     0    20207e00    00000200     UNINITIALIZED
                  20207e00    00000004     libc.a : boot_cortex_m.c.obj (.stack)
                  20207e04    000001fc     --HOLE--

__llvm_prf_cnts 
*          0    20200000    00000000     UNINITIALIZED

__llvm_prf_bits 
*          0    20200000    00000000     UNINITIALIZED

MODULE SUMMARY

       Module                         code    ro data   rw data
       ------                         ----    -------   -------
    .\
       ti_msp_dl_config.o             2264    36        376    
       startup_mspm0g350x_ticlang.o   8       192       0      
       empty.o                        22      0         0      
    +--+------------------------------+-------+---------+---------+
       Total:                         2294    228       376    
                                                               
    .\MSPM0G3507\Application\
       app_BLCD_test.o                92      0         0      
    +--+------------------------------+-------+---------+---------+
       Total:                         92      0         0      
                                                               
    .\MSPM0G3507\BSP\
       bsp_AS5600.o                   444     0         18     
       bsp_BLCD.o                     44      0         0      
       bsp_led.o                      44      0         0      
    +--+------------------------------+-------+---------+---------+
       Total:                         532     0         18     
                                                               
    .\MSPM0G3507\Driver\
       drv_IIC.o                      480     0         0      
       drv_tim.o                      234     0         0      
    +--+------------------------------+-------+---------+---------+
       Total:                         714     0         0      
                                                               
    .\MSPM0G3507\Middleware\
       mid_foc.o                      1240    0         52     
       mid_pid.o                      424     0         64     
       mid_delay.o                    180     0         4      
    +--+------------------------------+-------+---------+---------+
       Total:                         1844    0         120    
                                                               
    C:/TI/mspm0_sdk_2_10_00_04/source/ti/driverlib/lib/ticlang/m0p/mspm0g1x0x_g3x0x/driverlib.a
       dl_timer.o                     356     0         0      
       dl_i2c.o                       192     0         0      
       dl_uart.o                      90      0         0      
       dl_common.o                    10      0         0      
    +--+------------------------------+-------+---------+---------+
       Total:                         648     0         0      
                                                               
    E:\ccs\ccs\tools\compiler\ti-cgt-armllvm_4.0.4.LTS\lib\armv6m-ti-none-eabi/c/libc.a
       k_rem_pio2.c.obj               1652    344       0      
       s_cosf.c.obj                   822     0         0      
       s_sinf.c.obj                   810     0         0      
       s_floor.c.obj                  324     0         0      
       e_fmodf.c.obj                  284     8         0      
       s_scalbn.c.obj                 216     0         0      
       copy_decompress_lzss.c.obj     124     0         0      
       autoinit.c.obj                 60      0         0      
       boot_cortex_m.c.obj            40      0         0      
       copy_zero_init.c.obj           22      0         0      
       copy_decompress_none.c.obj     18      0         0      
       memcpy16.S.obj                 18      0         0      
       aeabi_portable.c.obj           8       0         4      
       exit.c.obj                     6       0         0      
       pre_init.c.obj                 4       0         0      
    +--+------------------------------+-------+---------+---------+
       Total:                         4408    352       4      
                                                               
    E:\ccs\ccs\tools\compiler\ti-cgt-armllvm_4.0.4.LTS\lib\armv6m-ti-none-eabi/c/libsysbm.a
       hostexit.c.obj                 4       0         0      
    +--+------------------------------+-------+---------+---------+
       Total:                         4       0         0      
                                                               
    E:\ccs\ccs\tools\compiler\ti-cgt-armllvm_4.0.4.LTS\lib\armv6m-ti-none-eabi/libclang_rt.builtins.a
       adddf3.S.obj                   418     0         0      
       muldf3.S.obj                   244     0         0      
       comparedf2.c.obj               220     0         0      
       addsf3.S.obj                   216     0         0      
       mulsf3.S.obj                   140     0         0      
       divsf3.S.obj                   130     0         0      
       comparesf2.S.obj               118     0         0      
       truncdfsf2.S.obj               116     0         0      
       aeabi_dcmp.S.obj               98      0         0      
       aeabi_fcmp.S.obj               98      0         0      
       aeabi_idivmod.S.obj            86      0         0      
       extendsfdf2.S.obj              80      0         0      
       fixdfsi.S.obj                  74      0         0      
       aeabi_uidivmod.S.obj           64      0         0      
       floatsisf.S.obj                60      0         0      
       muldsi3.S.obj                  58      0         0      
       fixsfsi.S.obj                  56      0         0      
       fixunssfsi.S.obj               50      0         0      
       floatsidf.S.obj                44      0         0      
       floatunsisf.S.obj              40      0         0      
       aeabi_memcpy.S.obj             8       0         0      
       aeabi_div0.c.obj               2       0         0      
    +--+------------------------------+-------+---------+---------+
       Total:                         2420    0         0      
                                                               
       Stack:                         0       0         512    
       Linker Generated:              0       68        0      
    +--+------------------------------+-------+---------+---------+
       Grand Total:                   12956   648       1030   


LINKER GENERATED COPY TABLES

__TI_cinit_table @ 0000353c records: 2, size/record: 8, table size: 16
	.data: load addr=00003508, load size=00000020 bytes, run addr=20200178, run size=0000008e bytes, compression=lzss
	.bss: load addr=00003534, load size=00000008 bytes, run addr=20200000, run size=00000178 bytes, compression=zero_init


LINKER GENERATED HANDLER TABLE

__TI_handler_table @ 00003528 records: 3, size/record: 4, table size: 12
	index: 0, handler: __TI_decompress_lzss
	index: 1, handler: __TI_decompress_none
	index: 2, handler: __TI_zero_init


FAR CALL TRAMPOLINES

callee name               trampoline name
   callee addr  tramp addr   call addr  call info
--------------  -----------  ---------  ----------------
__aeabi_dadd              $Tramp$TT$L$PI$$__aeabi_dadd
   00000cc7     0000312c     0000312a   libc.a : k_rem_pio2.c.obj (.text.OUTLINED_FUNCTION_0)
                             000032fa          : k_rem_pio2.c.obj (.text.OUTLINED_FUNCTION_1)
                             00003304          : s_cosf.c.obj (.text.OUTLINED_FUNCTION_3)
                             0000330e          : s_sinf.c.obj (.text.OUTLINED_FUNCTION_3)
__aeabi_dmul              $Tramp$TT$L$PI$$__aeabi_dmul
   0000161d     00003328     00003324   libc.a : s_cosf.c.obj (.text.OUTLINED_FUNCTION_0)
                             0000333c          : s_sinf.c.obj (.text.OUTLINED_FUNCTION_0)
                             00003342          : s_cosf.c.obj (.text.OUTLINED_FUNCTION_1)
                             00003348          : s_sinf.c.obj (.text.OUTLINED_FUNCTION_1)
__aeabi_f2d               $Tramp$TT$L$PI$$__aeabi_f2d
   000027cd     0000335c     0000335a   libc.a : s_cosf.c.obj (.text.OUTLINED_FUNCTION_2)
                             0000336e          : s_sinf.c.obj (.text.OUTLINED_FUNCTION_2)

[3 trampolines]
[10 trampoline calls]


GLOBAL SYMBOLS: SORTED ALPHABETICALLY BY Name 

address   name                            
-------   ----                            
00003351  ADC0_IRQHandler                 
00003351  ADC1_IRQHandler                 
00003351  AES_IRQHandler                  
00003354  C$$EXIT                         
00003351  CANFD0_IRQHandler               
00003351  DAC0_IRQHandler                 
202001b8  DIR                             
000032e9  DL_Common_delayCycles           
0000237d  DL_I2C_fillControllerTXFIFO     
0000290d  DL_I2C_flushControllerTXFIFO    
00002d53  DL_I2C_setClockConfig           
00001421  DL_Timer_initFourCCPWMMode      
00002ead  DL_Timer_setCaptCompUpdateMethod
00003089  DL_Timer_setCaptureCompareOutCtl
0000329d  DL_Timer_setCaptureCompareValue 
00002ec9  DL_Timer_setClockConfig         
00002671  DL_UART_init                    
00003245  DL_UART_setClockConfig          
00003351  DMA_IRQHandler                  
00003351  Default_Handler                 
00003351  GROUP0_IRQHandler               
00003351  GROUP1_IRQHandler               
00003355  HOSTexit                        
00003351  HardFault_Handler               
00003351  I2C0_IRQHandler                 
00003351  I2C1_IRQHandler                 
00003351  NMI_Handler                     
202001bc  PP                              
00003351  PendSV_Handler                  
00003351  RTC_IRQHandler                  
00003371  Reset_Handler                   
00003351  SPI0_IRQHandler                 
00003351  SPI1_IRQHandler                 
00003351  SVC_Handler                     
0000196d  SYSCFG_DL_BLDC_init             
00001211  SYSCFG_DL_GPIO_init             
00001cb5  SYSCFG_DL_MG310_PWM_init        
00002be9  SYSCFG_DL_SYSCTL_init           
000032dd  SYSCFG_DL_SYSTICK_init          
00002439  SYSCFG_DL_as5600_init           
00002589  SYSCFG_DL_debug_init            
00002aed  SYSCFG_DL_init                  
00001ed5  SYSCFG_DL_initPower             
00003351  SysTick_Handler                 
00003351  TIMA0_IRQHandler                
00003351  TIMA1_IRQHandler                
00003351  TIMG0_IRQHandler                
00003351  TIMG12_IRQHandler               
00003351  TIMG6_IRQHandler                
00003351  TIMG7_IRQHandler                
00003351  TIMG8_IRQHandler                
00003257  TI_memcpy_small                 
00003351  UART0_IRQHandler                
00003351  UART1_IRQHandler                
00003351  UART2_IRQHandler                
00003351  UART3_IRQHandler                
202001c0  Ua                              
202001c4  Ub                              
202001c8  Uc                              
20208000  __STACK_END                     
00000200  __STACK_SIZE                    
00000000  __TI_ATRegion0_region_sz        
00000000  __TI_ATRegion0_src_addr         
00000000  __TI_ATRegion0_trg_addr         
00000000  __TI_ATRegion1_region_sz        
00000000  __TI_ATRegion1_src_addr         
00000000  __TI_ATRegion1_trg_addr         
00000000  __TI_ATRegion2_region_sz        
00000000  __TI_ATRegion2_src_addr         
00000000  __TI_ATRegion2_trg_addr         
0000353c  __TI_CINIT_Base                 
0000354c  __TI_CINIT_Limit                
0000354c  __TI_CINIT_Warm                 
00003528  __TI_Handler_Table_Base         
00003534  __TI_Handler_Table_Limit        
00002a39  __TI_auto_init_nobinit_nopinit  
00001f51  __TI_decompress_lzss            
00003269  __TI_decompress_none            
ffffffff  __TI_pprof_out_hndl             
ffffffff  __TI_prof_data_size             
ffffffff  __TI_prof_data_start            
00000000  __TI_static_base__              
00003153  __TI_zero_init_nomemset         
00000cc7  __adddf3                        
000017e3  __addsf3                        
00002041  __aeabi_d2f                     
00002625  __aeabi_d2iz                    
00000cc7  __aeabi_dadd                    
00002255  __aeabi_dcmpeq                  
00002291  __aeabi_dcmpge                  
000022a5  __aeabi_dcmpgt                  
0000227d  __aeabi_dcmple                  
00002269  __aeabi_dcmplt                  
0000161d  __aeabi_dmul                    
00000cbd  __aeabi_dsub                    
202001cc  __aeabi_errno                   
00003311  __aeabi_errno_addr              
000027cd  __aeabi_f2d                     
00002b25  __aeabi_f2iz                    
00002b5d  __aeabi_f2uiz                   
000017e3  __aeabi_fadd                    
000022b9  __aeabi_fcmpeq                  
000022f5  __aeabi_fcmpge                  
00002309  __aeabi_fcmpgt                  
000022e1  __aeabi_fcmple                  
000022cd  __aeabi_fcmplt                  
00001e51  __aeabi_fdiv                    
00001d41  __aeabi_fmul                    
000017d9  __aeabi_fsub                    
00002b91  __aeabi_i2d                     
00002985  __aeabi_i2f                     
00002491  __aeabi_idiv                    
00000e4f  __aeabi_idiv0                   
00002491  __aeabi_idivmod                 
00003319  __aeabi_memcpy                  
00003319  __aeabi_memcpy4                 
00003319  __aeabi_memcpy8                 
00002cdd  __aeabi_ui2f                    
0000278d  __aeabi_uidiv                   
0000278d  __aeabi_uidivmod                
ffffffff  __binit__                       
00002125  __cmpdf2                        
00002a75  __cmpsf2                        
00001e51  __divsf3                        
00002125  __eqdf2                         
00002a75  __eqsf2                         
000027cd  __extendsfdf2                   
00002625  __fixdfsi                       
00002b25  __fixsfsi                       
00002b5d  __fixunssfsi                    
00002b91  __floatsidf                     
00002985  __floatsisf                     
00002cdd  __floatunsisf                   
00001fcd  __gedf2                         
000029c1  __gesf2                         
00001fcd  __gtdf2                         
000029c1  __gtsf2                         
000000c1  __kernel_rem_pio2               
00002125  __ledf2                         
00002a75  __lesf2                         
00002125  __ltdf2                         
00002a75  __ltsf2                         
UNDEFED   __mpu_init                      
0000161d  __muldf3                        
00002ab1  __muldsi3                       
00001d41  __mulsf3                        
00002125  __nedf2                         
00002a75  __nesf2                         
20207e00  __stack                         
20200000  __start___llvm_prf_bits         
20200000  __start___llvm_prf_cnts         
20200000  __stop___llvm_prf_bits          
20200000  __stop___llvm_prf_cnts          
00000cbd  __subdf3                        
000017d9  __subsf3                        
00002041  __truncdfsf2                    
00002d05  _c_int00_noargs                 
UNDEFED   _system_post_cinit              
00003375  _system_pre_init                
0000334b  abort                           
000023dd  app_BLCD_test                   
00002bbd  as5600_get_angle_radians        
0000218d  as5600_get_speed                
00001525  as5600_get_velocity             
00002dc1  as5600_read_raw_angle           
0000321d  as5600_set_direction            
ffffffff  binit                           
00002f01  bsp_bldc_init                   
000032bd  bsp_bldc_set_speed              
00000921  cosf                            
202001dc  dc_a                            
202001e0  dc_b                            
202001e4  dc_c                            
0000280d  delay_ms                        
000018b1  drv_iic_read                    
00000fb1  floor                           
00000fb1  floorl                          
000010f5  fmodf                           
000021f1  foc_as5600_init                 
0000284d  foc_electrical_angle            
00002f1d  foc_init                        
000029fd  foc_normalize                   
00000705  foc_pwm_output                  
000026b9  foc_set_speed                   
00000e51  foc_set_torque                  
20200000  gBLDCBackup                     
202000bc  gMG310_PWMBackup                
20200178  g_pid_angle                     
20200198  g_pid_speed                     
00002749  get_system_us                   
00000000  interruptVectors                
00001701  ldexp                           
00001701  ldexpl                          
0000313d  main                            
0000288d  pid_init                        
0000231d  pid_init_all                    
00001319  pid_update                      
000028cd  pwm_Init                        
00002d79  pwm_setAllDuty                  
00002701  pwm_setDuty                     
000032cd  pwm_start                       
00001701  scalbn                          
00001701  scalbnl                         
202001f0  sensor_speed                    
00000af5  sinf                            
202001f4  speed_target                    
00003231  use_led_TOGGLE                  
202001f8  voltage_limit                   
202001fc  voltage_power_supply            
20200200  zero_electric_angle             


GLOBAL SYMBOLS: SORTED BY Symbol Address 

address   name                            
-------   ----                            
00000000  __TI_ATRegion0_region_sz        
00000000  __TI_ATRegion0_src_addr         
00000000  __TI_ATRegion0_trg_addr         
00000000  __TI_ATRegion1_region_sz        
00000000  __TI_ATRegion1_src_addr         
00000000  __TI_ATRegion1_trg_addr         
00000000  __TI_ATRegion2_region_sz        
00000000  __TI_ATRegion2_src_addr         
00000000  __TI_ATRegion2_trg_addr         
00000000  __TI_static_base__              
00000000  interruptVectors                
000000c1  __kernel_rem_pio2               
00000200  __STACK_SIZE                    
00000705  foc_pwm_output                  
00000921  cosf                            
00000af5  sinf                            
00000cbd  __aeabi_dsub                    
00000cbd  __subdf3                        
00000cc7  __adddf3                        
00000cc7  __aeabi_dadd                    
00000e4f  __aeabi_idiv0                   
00000e51  foc_set_torque                  
00000fb1  floor                           
00000fb1  floorl                          
000010f5  fmodf                           
00001211  SYSCFG_DL_GPIO_init             
00001319  pid_update                      
00001421  DL_Timer_initFourCCPWMMode      
00001525  as5600_get_velocity             
0000161d  __aeabi_dmul                    
0000161d  __muldf3                        
00001701  ldexp                           
00001701  ldexpl                          
00001701  scalbn                          
00001701  scalbnl                         
000017d9  __aeabi_fsub                    
000017d9  __subsf3                        
000017e3  __addsf3                        
000017e3  __aeabi_fadd                    
000018b1  drv_iic_read                    
0000196d  SYSCFG_DL_BLDC_init             
00001cb5  SYSCFG_DL_MG310_PWM_init        
00001d41  __aeabi_fmul                    
00001d41  __mulsf3                        
00001e51  __aeabi_fdiv                    
00001e51  __divsf3                        
00001ed5  SYSCFG_DL_initPower             
00001f51  __TI_decompress_lzss            
00001fcd  __gedf2                         
00001fcd  __gtdf2                         
00002041  __aeabi_d2f                     
00002041  __truncdfsf2                    
00002125  __cmpdf2                        
00002125  __eqdf2                         
00002125  __ledf2                         
00002125  __ltdf2                         
00002125  __nedf2                         
0000218d  as5600_get_speed                
000021f1  foc_as5600_init                 
00002255  __aeabi_dcmpeq                  
00002269  __aeabi_dcmplt                  
0000227d  __aeabi_dcmple                  
00002291  __aeabi_dcmpge                  
000022a5  __aeabi_dcmpgt                  
000022b9  __aeabi_fcmpeq                  
000022cd  __aeabi_fcmplt                  
000022e1  __aeabi_fcmple                  
000022f5  __aeabi_fcmpge                  
00002309  __aeabi_fcmpgt                  
0000231d  pid_init_all                    
0000237d  DL_I2C_fillControllerTXFIFO     
000023dd  app_BLCD_test                   
00002439  SYSCFG_DL_as5600_init           
00002491  __aeabi_idiv                    
00002491  __aeabi_idivmod                 
00002589  SYSCFG_DL_debug_init            
00002625  __aeabi_d2iz                    
00002625  __fixdfsi                       
00002671  DL_UART_init                    
000026b9  foc_set_speed                   
00002701  pwm_setDuty                     
00002749  get_system_us                   
0000278d  __aeabi_uidiv                   
0000278d  __aeabi_uidivmod                
000027cd  __aeabi_f2d                     
000027cd  __extendsfdf2                   
0000280d  delay_ms                        
0000284d  foc_electrical_angle            
0000288d  pid_init                        
000028cd  pwm_Init                        
0000290d  DL_I2C_flushControllerTXFIFO    
00002985  __aeabi_i2f                     
00002985  __floatsisf                     
000029c1  __gesf2                         
000029c1  __gtsf2                         
000029fd  foc_normalize                   
00002a39  __TI_auto_init_nobinit_nopinit  
00002a75  __cmpsf2                        
00002a75  __eqsf2                         
00002a75  __lesf2                         
00002a75  __ltsf2                         
00002a75  __nesf2                         
00002ab1  __muldsi3                       
00002aed  SYSCFG_DL_init                  
00002b25  __aeabi_f2iz                    
00002b25  __fixsfsi                       
00002b5d  __aeabi_f2uiz                   
00002b5d  __fixunssfsi                    
00002b91  __aeabi_i2d                     
00002b91  __floatsidf                     
00002bbd  as5600_get_angle_radians        
00002be9  SYSCFG_DL_SYSCTL_init           
00002cdd  __aeabi_ui2f                    
00002cdd  __floatunsisf                   
00002d05  _c_int00_noargs                 
00002d53  DL_I2C_setClockConfig           
00002d79  pwm_setAllDuty                  
00002dc1  as5600_read_raw_angle           
00002ead  DL_Timer_setCaptCompUpdateMethod
00002ec9  DL_Timer_setClockConfig         
00002f01  bsp_bldc_init                   
00002f1d  foc_init                        
00003089  DL_Timer_setCaptureCompareOutCtl
0000313d  main                            
00003153  __TI_zero_init_nomemset         
0000321d  as5600_set_direction            
00003231  use_led_TOGGLE                  
00003245  DL_UART_setClockConfig          
00003257  TI_memcpy_small                 
00003269  __TI_decompress_none            
0000329d  DL_Timer_setCaptureCompareValue 
000032bd  bsp_bldc_set_speed              
000032cd  pwm_start                       
000032dd  SYSCFG_DL_SYSTICK_init          
000032e9  DL_Common_delayCycles           
00003311  __aeabi_errno_addr              
00003319  __aeabi_memcpy                  
00003319  __aeabi_memcpy4                 
00003319  __aeabi_memcpy8                 
0000334b  abort                           
00003351  ADC0_IRQHandler                 
00003351  ADC1_IRQHandler                 
00003351  AES_IRQHandler                  
00003351  CANFD0_IRQHandler               
00003351  DAC0_IRQHandler                 
00003351  DMA_IRQHandler                  
00003351  Default_Handler                 
00003351  GROUP0_IRQHandler               
00003351  GROUP1_IRQHandler               
00003351  HardFault_Handler               
00003351  I2C0_IRQHandler                 
00003351  I2C1_IRQHandler                 
00003351  NMI_Handler                     
00003351  PendSV_Handler                  
00003351  RTC_IRQHandler                  
00003351  SPI0_IRQHandler                 
00003351  SPI1_IRQHandler                 
00003351  SVC_Handler                     
00003351  SysTick_Handler                 
00003351  TIMA0_IRQHandler                
00003351  TIMA1_IRQHandler                
00003351  TIMG0_IRQHandler                
00003351  TIMG12_IRQHandler               
00003351  TIMG6_IRQHandler                
00003351  TIMG7_IRQHandler                
00003351  TIMG8_IRQHandler                
00003351  UART0_IRQHandler                
00003351  UART1_IRQHandler                
00003351  UART2_IRQHandler                
00003351  UART3_IRQHandler                
00003354  C$$EXIT                         
00003355  HOSTexit                        
00003371  Reset_Handler                   
00003375  _system_pre_init                
00003528  __TI_Handler_Table_Base         
00003534  __TI_Handler_Table_Limit        
0000353c  __TI_CINIT_Base                 
0000354c  __TI_CINIT_Limit                
0000354c  __TI_CINIT_Warm                 
20200000  __start___llvm_prf_bits         
20200000  __start___llvm_prf_cnts         
20200000  __stop___llvm_prf_bits          
20200000  __stop___llvm_prf_cnts          
20200000  gBLDCBackup                     
202000bc  gMG310_PWMBackup                
20200178  g_pid_angle                     
20200198  g_pid_speed                     
202001b8  DIR                             
202001bc  PP                              
202001c0  Ua                              
202001c4  Ub                              
202001c8  Uc                              
202001cc  __aeabi_errno                   
202001dc  dc_a                            
202001e0  dc_b                            
202001e4  dc_c                            
202001f0  sensor_speed                    
202001f4  speed_target                    
202001f8  voltage_limit                   
202001fc  voltage_power_supply            
20200200  zero_electric_angle             
20207e00  __stack                         
20208000  __STACK_END                     
ffffffff  __TI_pprof_out_hndl             
ffffffff  __TI_prof_data_size             
ffffffff  __TI_prof_data_start            
ffffffff  __binit__                       
ffffffff  binit                           
UNDEFED   __mpu_init                      
UNDEFED   _system_post_cinit              

[210 symbols]
